target datalayout = "e-m:e-p270:32:32-p271:32:32-p272:64:64-i64:64-i128:128-f80:128-n8:16:32:64-S128"
target triple = "x86_64-pc-linux-gnu"

@reportFlushPosition = internal global i8 0, align 1
@lastFlushPosition = internal global i64 0, align 8
@.str.35 = private unnamed_addr constant [35 x i8] c"could not send feedback packet: %s\00", align 1

; Function Attrs: nounwind uwtable
define internal zeroext i1 @sendFeedback(ptr noundef %0, i64 noundef %1, i64 noundef %2, i1 noundef zeroext %3) #0 {
  %5 = alloca i1, align 1
  %6 = alloca ptr, align 8
  %7 = alloca i64, align 8
  %8 = alloca i64, align 8
  %9 = alloca i8, align 1
  %10 = alloca [34 x i8], align 16
  %11 = alloca i32, align 4
  %12 = alloca i32, align 4
  store ptr %0, ptr %6, align 8
  store i64 %1, ptr %7, align 8
  store i64 %2, ptr %8, align 8
  %13 = zext i1 %3 to i8
  store i8 %13, ptr %9, align 1
  call void @llvm.lifetime.start.p0(i64 34, ptr %10) #9
  call void @llvm.lifetime.start.p0(i64 4, ptr %11) #9
  store i32 0, ptr %11, align 4
  %14 = load i32, ptr %11, align 4
  %15 = sext i32 %14 to i64
  %16 = getelementptr inbounds [34 x i8], ptr %10, i64 0, i64 %15
  store i8 114, ptr %16, align 1
  %17 = load i32, ptr %11, align 4
  %18 = add i32 %17, 1
  store i32 %18, ptr %11, align 4
  %19 = load i64, ptr %7, align 8
  %20 = load i32, ptr %11, align 4
  %21 = sext i32 %20 to i64
  %22 = getelementptr inbounds [34 x i8], ptr %10, i64 0, i64 %21
  call void @fe_sendint64(i64 noundef %19, ptr noundef %22)
  %23 = load i32, ptr %11, align 4
  %24 = add i32 %23, 8
  store i32 %24, ptr %11, align 4
  %25 = load i8, ptr @reportFlushPosition, align 1, !range !4, !noundef !5
  %26 = trunc i8 %25 to i1
  br i1 %26, label %27, label %32

27:                                               ; preds = %4
  %28 = load i64, ptr @lastFlushPosition, align 8
  %29 = load i32, ptr %11, align 4
  %30 = sext i32 %29 to i64
  %31 = getelementptr inbounds [34 x i8], ptr %10, i64 0, i64 %30
  call void @fe_sendint64(i64 noundef %28, ptr noundef %31)
  br label %36

32:                                               ; preds = %4
  %33 = load i32, ptr %11, align 4
  %34 = sext i32 %33 to i64
  %35 = getelementptr inbounds [34 x i8], ptr %10, i64 0, i64 %34
  call void @fe_sendint64(i64 noundef 0, ptr noundef %35)
  br label %36

36:                                               ; preds = %32, %27
  %37 = load i32, ptr %11, align 4
  %38 = add i32 %37, 8
  store i32 %38, ptr %11, align 4
  %39 = load i32, ptr %11, align 4
  %40 = sext i32 %39 to i64
  %41 = getelementptr inbounds [34 x i8], ptr %10, i64 0, i64 %40
  call void @fe_sendint64(i64 noundef 0, ptr noundef %41)
  %42 = load i32, ptr %11, align 4
  %43 = add i32 %42, 8
  store i32 %43, ptr %11, align 4
  %44 = load i64, ptr %8, align 8
  %45 = load i32, ptr %11, align 4
  %46 = sext i32 %45 to i64
  %47 = getelementptr inbounds [34 x i8], ptr %10, i64 0, i64 %46
  call void @fe_sendint64(i64 noundef %44, ptr noundef %47)
  %48 = load i32, ptr %11, align 4
  %49 = add i32 %48, 8
  store i32 %49, ptr %11, align 4
  %50 = load i8, ptr %9, align 1, !range !4, !noundef !5
  %51 = trunc i8 %50 to i1
  %52 = select i1 %51, i32 1, i32 0
  %53 = trunc i32 %52 to i8
  %54 = load i32, ptr %11, align 4
  %55 = sext i32 %54 to i64
  %56 = getelementptr inbounds [34 x i8], ptr %10, i64 0, i64 %55
  store i8 %53, ptr %56, align 1
  %57 = load i32, ptr %11, align 4
  %58 = add i32 %57, 1
  store i32 %58, ptr %11, align 4
  %59 = load ptr, ptr %6, align 8
  %60 = getelementptr inbounds [34 x i8], ptr %10, i64 0, i64 0
  %61 = load i32, ptr %11, align 4
  %62 = call i32 @PQputCopyData(ptr noundef %59, ptr noundef %60, i32 noundef %61)
  %63 = icmp sle i32 %62, 0
  br i1 %63, label %68, label %64

64:                                               ; preds = %36
  %65 = load ptr, ptr %6, align 8
  %66 = call i32 @PQflush(ptr noundef %65)
  %67 = icmp ne i32 %66, 0
  br i1 %67, label %68, label %71

68:                                               ; preds = %64, %36
  %69 = load ptr, ptr %6, align 8
  %70 = call ptr @PQerrorMessage(ptr noundef %69)
  call void (i32, i32, ptr, ...) @pg_log_generic(i32 noundef 4, i32 noundef 0, ptr noundef @.str.35, ptr noundef %70)
  store i1 false, ptr %5, align 1
  store i32 1, ptr %12, align 4
  br label %72

71:                                               ; preds = %64
  store i1 true, ptr %5, align 1
  store i32 1, ptr %12, align 4
  br label %72

72:                                               ; preds = %71, %68
  call void @llvm.lifetime.end.p0(i64 4, ptr %11) #9
  call void @llvm.lifetime.end.p0(i64 34, ptr %10) #9
  %73 = load i1, ptr %5, align 1
  ret i1 %73
}