; Function Attrs: nounwind uwtable
define internal fastcc noundef zeroext i1 @sendFeedback(ptr noundef %0, i64 noundef %1, i64 noundef %2) unnamed_addr #0 {
  %4 = alloca [34 x i8], align 16
  call void @llvm.lifetime.start.p0(i64 34, ptr nonnull %4) #11
  store i8 114, ptr %4, align 16
  %5 = getelementptr inbounds nuw i8, ptr %4, i64 1
  call void @fe_sendint64(i64 noundef %1, ptr noundef nonnull %5) #11
  %.b20 = load i1, ptr @reportFlushPosition, align 1
  %6 = load i64, ptr @lastFlushPosition, align 8
  %.sink = select i1 %.b20, i64 %6, i64 0
  %7 = getelementptr inbounds nuw i8, ptr %4, i64 9
  call void @fe_sendint64(i64 noundef %.sink, ptr noundef nonnull %7) #11
  %8 = getelementptr inbounds nuw i8, ptr %4, i64 17
  call void @fe_sendint64(i64 noundef 0, ptr noundef nonnull %8) #11
  %9 = getelementptr inbounds nuw i8, ptr %4, i64 25
  call void @fe_sendint64(i64 noundef %2, ptr noundef nonnull %9) #11
  %10 = getelementptr inbounds nuw i8, ptr %4, i64 33
  store i8 0, ptr %10, align 1
  %11 = call i32 @PQputCopyData(ptr noundef %0, ptr noundef nonnull %4, i32 noundef 34) #11
  %12 = icmp slt i32 %11, 1
  br i1 %12, label %15, label %13

13:                                               ; preds = %3
  %14 = call i32 @PQflush(ptr noundef %0) #11
  %.not = icmp eq i32 %14, 0
  br i1 %.not, label %17, label %15

15:                                               ; preds = %13, %3
  %16 = call ptr @PQerrorMessage(ptr noundef %0) #11
  call void (i32, i32, ptr, ...) @pg_log_generic(i32 noundef 4, i32 noundef 0, ptr noundef nonnull @.str.35, ptr noundef %16) #11
  br label %17

17:                                               ; preds = %13, %15
  %.0 = phi i1 [ false, %15 ], [ true, %13 ]
  call void @llvm.lifetime.end.p0(i64 34, ptr nonnull %4) #11
  ret i1 %.0
}